target datalayout = "e-m:e-p270:32:32-p271:32:32-p272:64:64-i64:64-i128:128-f80:128-n8:16:32:64-S128"
target triple = "x86_64-pc-linux-gnu"

%struct.LexDescr = type { i32, ptr, ptr }

; Function Attrs: inlinehint nounwind uwtable
define internal i64 @PointerGetDatum(ptr noundef %0) #3 {
  %2 = alloca ptr, align 8
  store ptr %0, ptr %2, align 8
  %3 = load ptr, ptr %2, align 8
  %4 = ptrtoint ptr %3 to i64
  ret i64 %4
}

; Function Attrs: nounwind uwtable
define dso_local i64 @prsd_lextype(ptr noundef %0) #0 {
  %2 = alloca ptr, align 8
  %3 = alloca ptr, align 8
  %4 = alloca i32, align 4
  store ptr %0, ptr %2, align 8
  call void @llvm.lifetime.start.p0(i64 8, ptr %3) #11
  %5 = call ptr @palloc(i64 noundef 576)
  store ptr %5, ptr %3, align 8
  call void @llvm.lifetime.start.p0(i64 4, ptr %4) #11
  store i32 1, ptr %4, align 4
  br label %6

6:                                                ; preds = %39, %1
  %7 = load i32, ptr %4, align 4
  %8 = icmp sle i32 %7, 23
  br i1 %8, label %9, label %42

9:                                                ; preds = %6
  %10 = load i32, ptr %4, align 4
  %11 = load ptr, ptr %3, align 8
  %12 = load i32, ptr %4, align 4
  %13 = sub i32 %12, 1
  %14 = sext i32 %13 to i64
  %15 = getelementptr inbounds %struct.LexDescr, ptr %11, i64 %14
  %16 = getelementptr inbounds nuw %struct.LexDescr, ptr %15, i32 0, i32 0
  store i32 %10, ptr %16, align 8
  %17 = load i32, ptr %4, align 4
  %18 = sext i32 %17 to i64
  %19 = getelementptr inbounds [24 x ptr], ptr @tok_alias, i64 0, i64 %18
  %20 = load ptr, ptr %19, align 8
  %21 = call ptr @pstrdup(ptr noundef %20)
  %22 = load ptr, ptr %3, align 8
  %23 = load i32, ptr %4, align 4
  %24 = sub i32 %23, 1
  %25 = sext i32 %24 to i64
  %26 = getelementptr inbounds %struct.LexDescr, ptr %22, i64 %25
  %27 = getelementptr inbounds nuw %struct.LexDescr, ptr %26, i32 0, i32 1
  store ptr %21, ptr %27, align 8
  %28 = load i32, ptr %4, align 4
  %29 = sext i32 %28 to i64
  %30 = getelementptr inbounds [24 x ptr], ptr @lex_descr, i64 0, i64 %29
  %31 = load ptr, ptr %30, align 8
  %32 = call ptr @pstrdup(ptr noundef %31)
  %33 = load ptr, ptr %3, align 8
  %34 = load i32, ptr %4, align 4
  %35 = sub i32 %34, 1
  %36 = sext i32 %35 to i64
  %37 = getelementptr inbounds %struct.LexDescr, ptr %33, i64 %36
  %38 = getelementptr inbounds nuw %struct.LexDescr, ptr %37, i32 0, i32 2
  store ptr %32, ptr %38, align 8
  br label %39

39:                                               ; preds = %9
  %40 = load i32, ptr %4, align 4
  %41 = add i32 %40, 1
  store i32 %41, ptr %4, align 4
  br label %6, !llvm.loop !6

42:                                               ; preds = %6
  %43 = load ptr, ptr %3, align 8
  %44 = getelementptr inbounds %struct.LexDescr, ptr %43, i64 23
  %45 = getelementptr inbounds nuw %struct.LexDescr, ptr %44, i32 0, i32 0
  store i32 0, ptr %45, align 8
  %46 = load ptr, ptr %3, align 8
  %47 = call i64 @PointerGetDatum(ptr noundef %46)
  call void @llvm.lifetime.end.p0(i64 4, ptr %4) #11
  call void @llvm.lifetime.end.p0(i64 8, ptr %3) #11
  ret i64 %47
}