; Function Attrs: nounwind uwtable
define dso_local i64 @prsd_lextype(ptr noundef readnone captures(none) %0) local_unnamed_addr #0 {
  %2 = tail call ptr @palloc(i64 noundef 576) #16
  br label %3

3:                                                ; preds = %1, %3
  %indvars.iv = phi i64 [ 1, %1 ], [ %indvars.iv.next, %3 ]
  %4 = getelementptr %struct.LexDescr, ptr %2, i64 %indvars.iv
  %5 = getelementptr i8, ptr %4, i64 -24
  %6 = trunc nuw nsw i64 %indvars.iv to i32
  store i32 %6, ptr %5, align 8
  %7 = getelementptr inbounds nuw [24 x ptr], ptr @tok_alias, i64 0, i64 %indvars.iv
  %8 = load ptr, ptr %7, align 8
  %9 = tail call ptr @pstrdup(ptr noundef %8) #16
  %10 = getelementptr i8, ptr %4, i64 -16
  store ptr %9, ptr %10, align 8
  %11 = getelementptr inbounds nuw [24 x ptr], ptr @lex_descr, i64 0, i64 %indvars.iv
  %12 = load ptr, ptr %11, align 8
  %13 = tail call ptr @pstrdup(ptr noundef %12) #16
  %14 = getelementptr i8, ptr %4, i64 -8
  store ptr %13, ptr %14, align 8
  %indvars.iv.next = add nuw nsw i64 %indvars.iv, 1
  %exitcond.not = icmp eq i64 %indvars.iv.next, 24
  br i1 %exitcond.not, label %15, label %3, !llvm.loop !6

15:                                               ; preds = %3
  %16 = getelementptr inbounds nuw i8, ptr %2, i64 552
  store i32 0, ptr %16, align 8
  %17 = ptrtoint ptr %2 to i64
  ret i64 %17
}